BL51 BANKED LINKER/LOCATER V6.22                                                        09/20/2018  18:08:20  PAGE 1


BL51 BANKED LINKER/LOCATER V6.22, INVOKED BY:
C:\KEIL\C51\BIN\BL51.EXE GPIO.obj, main.obj, timer.obj, Soft_UART.obj, delay.obj, Exti.obj TO timer PRINT (.\list\timer.
>> m51) RAMSIZE (256)


MEMORY MODEL: SMALL


INPUT MODULES INCLUDED:
  GPIO.obj (GPIO)
  main.obj (MAIN)
  timer.obj (TIMER)
  Soft_UART.obj (SOFT_UART)
  delay.obj (DELAY)
  Exti.obj (EXTI)
  C:\KEIL\C51\LIB\C51S.LIB (?C_STARTUP)
  C:\KEIL\C51\LIB\C51S.LIB (?C?CLDPTR)
  C:\KEIL\C51\LIB\C51S.LIB (?C?CLDOPTR)
  C:\KEIL\C51\LIB\C51S.LIB (?C?ILDOPTR)
  C:\KEIL\C51\LIB\C51S.LIB (?C?ULDIV)
  C:\KEIL\C51\LIB\C51S.LIB (?C?ULCMP)
  C:\KEIL\C51\LIB\C51S.LIB (?C_INIT)


LINK MAP OF MODULE:  timer (GPIO)


            TYPE    BASE      LENGTH    RELOCATION   SEGMENT NAME
            -----------------------------------------------------

            * * * * * * *   D A T A   M E M O R Y   * * * * * * *
            REG     0000H     0008H     ABSOLUTE     "REG BANK 0"
            DATA    0008H     001BH     UNIT         ?DT?MAIN
            DATA    0023H     0008H     UNIT         _DATA_GROUP_
            IDATA   002BH     0001H     UNIT         ?STACK

            * * * * * * *   C O D E   M E M O R Y   * * * * * * *
            CODE    0000H     0003H     ABSOLUTE     
            CODE    0003H     0003H     ABSOLUTE     
            CODE    0006H     0003H     UNIT         ?PR?SECONDACTION?MAIN
                    0009H     0002H                  *** GAP ***
            CODE    000BH     0003H     ABSOLUTE     
                    000EH     0005H                  *** GAP ***
            CODE    0013H     0003H     ABSOLUTE     
            CODE    0016H     015DH     UNIT         ?C?LIB_CODE
            CODE    0173H     011EH     UNIT         ?PR?_TIMER_INILIZE?TIMER
            CODE    0291H     0118H     UNIT         ?PR?TIMER0_INT?MAIN
            CODE    03A9H     00F5H     UNIT         ?PR?MAIN?MAIN
            CODE    049EH     00EAH     UNIT         ?PR?PRINTNOWTIME?MAIN
            CODE    0588H     008CH     UNIT         ?C_C51STARTUP
            CODE    0614H     006EH     UNIT         ?PR?_EXT_INILIZE?EXTI
            CODE    0682H     005EH     UNIT         ?PR?_GPIO_INILIZE?GPIO
            CODE    06E0H     0043H     UNIT         ?PR?INT0_INT?MAIN
            CODE    0723H     0043H     UNIT         ?PR?INT1_INT?MAIN
            CODE    0766H     003CH     UNIT         ?CO?MAIN
            CODE    07A2H     0034H     UNIT         ?C_INITSEG
            CODE    07D6H     0026H     UNIT         ?PR?_TXSEND?SOFT_UART
            CODE    07FCH     0024H     UNIT         ?PR?EXTI_CONFIG?MAIN
BL51 BANKED LINKER/LOCATER V6.22                                                      09/20/2018  18:08:20  PAGE 2


            CODE    0820H     0021H     UNIT         ?PR?GPIO_CONFIG?MAIN
            CODE    0841H     0020H     UNIT         ?PR?TIMER_CONFIG?MAIN
            CODE    0861H     001DH     UNIT         ?PR?KEY_SCAN?MAIN
            CODE    087EH     0018H     UNIT         ?PR?MINTUEACTION?MAIN
            CODE    0896H     0010H     UNIT         ?PR?_PRINTSTRING?SOFT_UART
            CODE    08A6H     0010H     UNIT         ?PR?_DELAY_MS?DELAY
            CODE    08B6H     000EH     UNIT         ?PR?BITTIME?SOFT_UART



OVERLAY MAP OF MODULE:   timer (GPIO)


SEGMENT                              DATA_GROUP 
  +--> CALLED SEGMENT              START    LENGTH
--------------------------------------------------
?PR?TIMER0_INT?MAIN                -----    -----
  +--> ?PR?SECONDACTION?MAIN
  +--> ?PR?MINTUEACTION?MAIN

?PR?SECONDACTION?MAIN              -----    -----
  +--> ?PR?PRINTNOWTIME?MAIN

?PR?PRINTNOWTIME?MAIN              -----    -----
  +--> ?CO?MAIN
  +--> ?PR?_PRINTSTRING?SOFT_UART
  +--> ?PR?_TXSEND?SOFT_UART

?PR?_PRINTSTRING?SOFT_UART         -----    -----
  +--> ?PR?_TXSEND?SOFT_UART

?PR?_TXSEND?SOFT_UART              -----    -----
  +--> ?PR?BITTIME?SOFT_UART

*** NEW ROOT ***************************************************

?PR?INT0_INT?MAIN                  -----    -----
  +--> ?CO?MAIN
  +--> ?PR?_PRINTSTRING?SOFT_UART

*** NEW ROOT ***************************************************

?PR?INT1_INT?MAIN                  -----    -----
  +--> ?CO?MAIN
  +--> ?PR?_PRINTSTRING?SOFT_UART

*** NEW ROOT ***************************************************

?C_C51STARTUP                      -----    -----
  +--> ?PR?MAIN?MAIN
  +--> ?C_INITSEG

?PR?MAIN?MAIN                      -----    -----
  +--> ?PR?GPIO_CONFIG?MAIN
  +--> ?PR?EXTI_CONFIG?MAIN
  +--> ?PR?TIMER_CONFIG?MAIN
  +--> ?PR?KEY_SCAN?MAIN
BL51 BANKED LINKER/LOCATER V6.22                                                      09/20/2018  18:08:20  PAGE 3


  +--> ?PR?_DELAY_MS?DELAY

?PR?GPIO_CONFIG?MAIN               0023H    0002H
  +--> ?PR?_GPIO_INILIZE?GPIO

?PR?EXTI_CONFIG?MAIN               0023H    0003H
  +--> ?PR?_EXT_INILIZE?EXTI

?PR?TIMER_CONFIG?MAIN              0023H    0008H
  +--> ?PR?_TIMER_INILIZE?TIMER

?PR?KEY_SCAN?MAIN                  -----    -----
  +--> ?PR?_DELAY_MS?DELAY
  +--> ?CO?MAIN
  +--> ?PR?_PRINTSTRING?SOFT_UART



SYMBOL TABLE OF MODULE:  timer (GPIO)

  VALUE           TYPE          NAME
  ----------------------------------

  -------         MODULE        GPIO
  C:0000H         SYMBOL        _ICE_DUMMY_
  D:00B2H         PUBLIC        P3M0
  D:00B1H         PUBLIC        P3M1
  D:00A8H         PUBLIC        IE
  D:00B8H         PUBLIC        IP
  D:0088H         PUBLIC        TCON
  C:0682H         PUBLIC        _GPIO_Inilize
  -------         PROC          _GPIO_INILIZE
  D:0007H         SYMBOL        GPIO
  D:0001H         SYMBOL        GPIOx
  C:0682H         LINE#         31
  C:0682H         LINE#         32
  C:0682H         LINE#         33
  C:068BH         LINE#         34
  C:0697H         LINE#         37
  C:069CH         LINE#         38
  C:069CH         LINE#         39
  C:06AAH         LINE#         40
  C:06BBH         LINE#         41
  C:06CCH         LINE#         42
  C:06DDH         LINE#         43
  C:06DDH         LINE#         45
  C:06DFH         LINE#         46
  -------         ENDPROC       _GPIO_INILIZE
  -------         ENDMOD        GPIO

  -------         MODULE        MAIN
  C:0000H         SYMBOL        _ICE_DUMMY_
  C:0291H         PUBLIC        timer0_int
  D:00B0H         PUBLIC        P3
  B:00A8H.7       PUBLIC        EA
  B:00B0H.5       PUBLIC        ioInKeyForMoto
  D:0008H         PUBLIC        g_hour
BL51 BANKED LINKER/LOCATER V6.22                                                      09/20/2018  18:08:20  PAGE 4


  C:0820H         PUBLIC        GPIO_config
  D:00A8H         PUBLIC        IE
  D:000CH         PUBLIC        g_key_flag
  C:07FCH         PUBLIC        EXTI_config
  D:00B8H         PUBLIC        IP
  B:00B0H.3       PUBLIC        ioInKeyForRun
  D:000EH         PUBLIC        g_key_time
  D:000FH         PUBLIC        g_addNum
  D:0010H         PUBLIC        ioSwitchLED
  C:03A9H         PUBLIC        main
  B:00B0H.0       PUBLIC        ioOutForL1Green
  D:0011H         PUBLIC        g_allKeyState
  D:0014H         PUBLIC        g_light_on_time
  D:0088H         PUBLIC        TCON
  B:0088H.1       PUBLIC        IE0
  B:0088H.3       PUBLIC        IE1
  D:0015H         PUBLIC        ioKEY
  D:0016H         PUBLIC        g_second
  C:06E0H         PUBLIC        INT0_int
  C:0723H         PUBLIC        INT1_int
  B:00A8H.0       PUBLIC        EX0
  B:00A8H.2       PUBLIC        EX1
  C:0861H         PUBLIC        key_scan
  D:001AH         PUBLIC        ioWorkLED
  B:00B0H.1       PUBLIC        ioOutForL2Red
  D:001BH         PUBLIC        g_minute
  C:0841H         PUBLIC        Timer_config
  B:00B0H.4       PUBLIC        ioOutForMoto
  C:0006H         PUBLIC        secondAction
  D:001FH         PUBLIC        g_millisecond
  B:00B0H.2       PUBLIC        ioInKeyForTime
  C:049EH         PUBLIC        printNowTime
  C:087EH         PUBLIC        mintueAction
  -------         PROC          EXTI_CONFIG
  -------         DO            
  D:0023H         SYMBOL        EXTI_InitStructure
  -------         ENDDO         
  C:07FCH         LINE#         93
  C:07FCH         LINE#         94
  C:07FCH         LINE#         98
  C:07FFH         LINE#         99
  C:0802H         LINE#         100
  C:0805H         LINE#         101
  C:080EH         LINE#         104
  C:0811H         LINE#         105
  C:0813H         LINE#         106
  C:0816H         LINE#         107
  -------         ENDPROC       EXTI_CONFIG
  -------         PROC          GPIO_CONFIG
  -------         DO            
  D:0023H         SYMBOL        GPIO_InitStructure
  -------         ENDDO         
  C:0820H         LINE#         114
  C:0820H         LINE#         115
  C:0820H         LINE#         117
  C:0823H         LINE#         119
  C:0826H         LINE#         120
BL51 BANKED LINKER/LOCATER V6.22                                                      09/20/2018  18:08:20  PAGE 5


  C:0831H         LINE#         123
  C:0834H         LINE#         124
  C:0837H         LINE#         125
  -------         ENDPROC       GPIO_CONFIG
  -------         PROC          TIMER_CONFIG
  -------         DO            
  D:0023H         SYMBOL        TIM_InitStructure
  -------         ENDDO         
  C:0841H         LINE#         130
  C:0841H         LINE#         131
  C:0841H         LINE#         133
  C:0844H         LINE#         134
  C:0847H         LINE#         135
  C:084AH         LINE#         136
  C:084DH         LINE#         137
  C:084FH         LINE#         138
  C:0855H         LINE#         140
  C:0858H         LINE#         141
  -------         ENDPROC       TIMER_CONFIG
  -------         PROC          MAIN
  C:03A9H         LINE#         147
  C:03A9H         LINE#         148
  C:03A9H         LINE#         151
  C:03ACH         LINE#         155
  C:03B4H         LINE#         158
  C:03B8H         LINE#         164
  C:03BBH         LINE#         167
  C:03BEH         LINE#         169
  C:03C0H         LINE#         173
  C:03C0H         LINE#         174
  C:03C0H         LINE#         175
  C:03C3H         LINE#         183
  C:0440H         LINE#         192
  C:0440H         LINE#         195
  C:045CH         LINE#         197
  C:045FH         LINE#         198
  C:0461H         LINE#         199
  C:0461H         LINE#         200
  C:0464H         LINE#         201
  C:0464H         LINE#         202
  C:0464H         LINE#         209
  C:0488H         LINE#         210
  C:048BH         LINE#         211
  C:0490H         LINE#         212
  C:0493H         LINE#         213
  C:0496H         LINE#         214
  C:0496H         LINE#         216
  C:049BH         LINE#         217
  C:049BH         LINE#         221
  -------         ENDPROC       MAIN
  -------         PROC          MINTUEACTION
  C:087EH         LINE#         225
  C:087EH         LINE#         228
  C:0885H         LINE#         230
  C:088AH         LINE#         231
  C:088CH         LINE#         232
  C:088DH         LINE#         233
BL51 BANKED LINKER/LOCATER V6.22                                                      09/20/2018  18:08:20  PAGE 6


  C:088DH         LINE#         234
  C:0893H         LINE#         235
  C:0895H         LINE#         236
  C:0895H         LINE#         237
  -------         ENDPROC       MINTUEACTION
  -------         PROC          SECONDACTION
  C:0006H         LINE#         239
  C:0006H         LINE#         241
  -------         ENDPROC       SECONDACTION
  -------         PROC          PRINTNOWTIME
  C:049EH         LINE#         245
  C:049EH         LINE#         247
  C:04A5H         LINE#         249
  C:04AAH         LINE#         251
  C:04D3H         LINE#         252
  C:04EBH         LINE#         255
  C:04F0H         LINE#         256
  C:04F5H         LINE#         257
  C:051EH         LINE#         258
  C:0536H         LINE#         260
  C:053BH         LINE#         261
  C:0540H         LINE#         263
  C:0569H         LINE#         264
  C:0581H         LINE#         275
  -------         ENDPROC       PRINTNOWTIME
  -------         PROC          KEY_SCAN
  C:0861H         LINE#         278
  C:0861H         LINE#         280
  C:0865H         LINE#         282
  C:0865H         LINE#         283
  C:086AH         LINE#         284
  C:086EH         LINE#         285
  C:086EH         LINE#         287
  C:0873H         LINE#         289
  C:0876H         LINE#         291
  C:087DH         LINE#         293
  C:087DH         LINE#         294
  C:087DH         LINE#         297
  -------         ENDPROC       KEY_SCAN
  -------         PROC          TIMER0_INT
  C:0291H         LINE#         301
  C:02AEH         LINE#         303
  C:02C7H         LINE#         305
  C:02DDH         LINE#         306
  C:02E9H         LINE#         307
  C:02ECH         LINE#         309
  C:0301H         LINE#         311
  C:0315H         LINE#         314
  C:0318H         LINE#         315
  C:0324H         LINE#         316
  C:0339H         LINE#         318
  C:034DH         LINE#         321
  C:0359H         LINE#         322
  C:036EH         LINE#         324
  C:0382H         LINE#         327
  C:038EH         LINE#         329
  C:038EH         LINE#         331
BL51 BANKED LINKER/LOCATER V6.22                                                      09/20/2018  18:08:20  PAGE 7


  C:038EH         LINE#         332
  C:038EH         LINE#         333
  C:038EH         LINE#         334
  -------         ENDPROC       TIMER0_INT
  -------         PROC          INT0_INT
  C:06E0H         LINE#         339
  C:06FDH         LINE#         342
  C:06FFH         LINE#         343
  C:0701H         LINE#         345
  C:0708H         LINE#         346
  -------         ENDPROC       INT0_INT
  -------         PROC          INT1_INT
  C:0723H         LINE#         349
  C:0740H         LINE#         352
  C:0742H         LINE#         353
  C:0744H         LINE#         356
  C:074BH         LINE#         357
  -------         ENDPROC       INT1_INT
  -------         ENDMOD        MAIN

  -------         MODULE        TIMER
  C:0000H         SYMBOL        _ICE_DUMMY_
  D:00A8H         PUBLIC        IE
  D:00B8H         PUBLIC        IP
  D:0089H         PUBLIC        TMOD
  D:0088H         PUBLIC        TCON
  C:0173H         PUBLIC        _Timer_Inilize
  D:008EH         PUBLIC        AUXR
  B:00A8H.1       PUBLIC        ET0
  B:00A8H.3       PUBLIC        ET1
  D:008CH         PUBLIC        TH0
  D:008DH         PUBLIC        TH1
  D:008AH         PUBLIC        TL0
  D:008BH         PUBLIC        TL1
  B:00B8H.1       PUBLIC        PT0
  B:00B8H.3       PUBLIC        PT1
  B:0088H.4       PUBLIC        TR0
  B:0088H.6       PUBLIC        TR1
  D:008FH         PUBLIC        INT_CLKO
  -------         PROC          _TIMER_INILIZE
  D:0005H         SYMBOL        TIM
  D:0001H         SYMBOL        TIMx
  C:0173H         LINE#         44
  C:0175H         LINE#         45
  C:0175H         LINE#         46
  C:017EH         LINE#         48
  C:0184H         LINE#         49
  C:0184H         LINE#         50
  C:0186H         LINE#         51
  C:0193H         LINE#         52
  C:0195H         LINE#         53
  C:01A2H         LINE#         54
  C:01A4H         LINE#         55
  C:01B0H         LINE#         56
  C:01B7H         LINE#         57
  C:01C4H         LINE#         58
  C:01CAH         LINE#         59
BL51 BANKED LINKER/LOCATER V6.22                                                      09/20/2018  18:08:20  PAGE 8


  C:01D3H         LINE#         60
  C:01D6H         LINE#         61
  C:01E4H         LINE#         62
  C:01E7H         LINE#         64
  C:01F1H         LINE#         65
  C:01F9H         LINE#         66
  C:0204H         LINE#         67
  C:0207H         LINE#         68
  C:0207H         LINE#         70
  C:020FH         LINE#         71
  C:020FH         LINE#         72
  C:0211H         LINE#         73
  C:021EH         LINE#         74
  C:0220H         LINE#         75
  C:022DH         LINE#         76
  C:022FH         LINE#         77
  C:023BH         LINE#         78
  C:0242H         LINE#         79
  C:024FH         LINE#         80
  C:0255H         LINE#         81
  C:025EH         LINE#         82
  C:0261H         LINE#         83
  C:026FH         LINE#         84
  C:0272H         LINE#         86
  C:027EH         LINE#         87
  C:0280H         LINE#         88
  C:028BH         LINE#         89
  C:028EH         LINE#         90
  C:028EH         LINE#         110
  C:0290H         LINE#         111
  -------         ENDPROC       _TIMER_INILIZE
  -------         ENDMOD        TIMER

  -------         MODULE        SOFT_UART
  C:0000H         SYMBOL        _ICE_DUMMY_
  D:00B0H         PUBLIC        P3
  C:0896H         PUBLIC        _PrintString
  D:00A8H         PUBLIC        IE
  D:00B8H         PUBLIC        IP
  B:00B0H.1       PUBLIC        P_TXD
  C:08B6H         PUBLIC        BitTime
  D:0088H         PUBLIC        TCON
  C:07D6H         PUBLIC        _TxSend
  -------         PROC          BITTIME
  -------         DO            
  D:0006H         SYMBOL        i
  -------         ENDDO         
  C:08B6H         LINE#         38
  C:08B6H         LINE#         39
  C:08B6H         LINE#         41
  C:08BAH         LINE#         42
  C:08C3H         LINE#         43
  -------         ENDPROC       BITTIME
  -------         PROC          _TXSEND
  D:0005H         SYMBOL        dat
  -------         DO            
  D:0004H         SYMBOL        i
BL51 BANKED LINKER/LOCATER V6.22                                                      09/20/2018  18:08:20  PAGE 9


  -------         ENDDO         
  C:07D6H         LINE#         54
  C:07D8H         LINE#         55
  C:07D8H         LINE#         58
  C:07DAH         LINE#         59
  C:07DDH         LINE#         60
  C:07DFH         LINE#         61
  C:07DFH         LINE#         62
  C:07E7H         LINE#         63
  C:07E9H         LINE#         64
  C:07EDH         LINE#         65
  C:07F0H         LINE#         66
  C:07F4H         LINE#         67
  C:07F6H         LINE#         69
  C:07F9H         LINE#         70
  -------         ENDPROC       _TXSEND
  -------         PROC          _PRINTSTRING
  D:0082H         SYMBOL        puts
  C:0896H         LINE#         82
  C:089AH         LINE#         83
  C:089AH         LINE#         84
  C:08A5H         LINE#         85
  -------         ENDPROC       _PRINTSTRING
  -------         ENDMOD        SOFT_UART

  -------         MODULE        DELAY
  C:0000H         SYMBOL        _ICE_DUMMY_
  D:00A8H         PUBLIC        IE
  D:00B8H         PUBLIC        IP
  D:0088H         PUBLIC        TCON
  C:08A6H         PUBLIC        _delay_ms
  -------         PROC          _DELAY_MS
  D:0007H         SYMBOL        ms
  -------         DO            
  D:0004H         SYMBOL        i
  -------         ENDDO         
  C:08A6H         LINE#         33
  C:08A6H         LINE#         34
  C:08A6H         LINE#         36
  C:08A6H         LINE#         37
  C:08AAH         LINE#         38
  C:08B3H         LINE#         39
  C:08B5H         LINE#         40
  -------         ENDPROC       _DELAY_MS
  -------         ENDMOD        DELAY

  -------         MODULE        EXTI
  C:0000H         SYMBOL        _ICE_DUMMY_
  D:00A8H         PUBLIC        IE
  D:00B8H         PUBLIC        IP
  D:0088H         PUBLIC        TCON
  B:00A8H.0       PUBLIC        EX0
  B:0088H.0       PUBLIC        IT0
  B:00A8H.2       PUBLIC        EX1
  B:0088H.2       PUBLIC        IT1
  B:00B8H.0       PUBLIC        PX0
  B:00B8H.2       PUBLIC        PX1
BL51 BANKED LINKER/LOCATER V6.22                                                      09/20/2018  18:08:20  PAGE 10


  C:0614H         PUBLIC        _Ext_Inilize
  -------         PROC          _EXT_INILIZE
  D:0007H         SYMBOL        EXT
  D:0001H         SYMBOL        INTx
  C:0614H         LINE#         50
  C:0614H         LINE#         51
  C:0614H         LINE#         52
  C:061DH         LINE#         54
  C:0620H         LINE#         55
  C:0620H         LINE#         56
  C:062DH         LINE#         57
  C:062FH         LINE#         58
  C:063CH         LINE#         59
  C:063EH         LINE#         60
  C:0648H         LINE#         61
  C:064AH         LINE#         62
  C:064DH         LINE#         63
  C:064DH         LINE#         65
  C:0652H         LINE#         66
  C:0652H         LINE#         67
  C:065FH         LINE#         68
  C:0661H         LINE#         69
  C:066EH         LINE#         70
  C:0670H         LINE#         71
  C:067AH         LINE#         72
  C:067CH         LINE#         73
  C:067FH         LINE#         74
  C:067FH         LINE#         96
  C:0681H         LINE#         97
  -------         ENDPROC       _EXT_INILIZE
  -------         ENDMOD        EXTI

  -------         MODULE        ?C?CLDPTR
  C:0016H         PUBLIC        ?C?CLDPTR
  -------         ENDMOD        ?C?CLDPTR

  -------         MODULE        ?C?CLDOPTR
  C:002FH         PUBLIC        ?C?CLDOPTR
  -------         ENDMOD        ?C?CLDOPTR

  -------         MODULE        ?C?ILDOPTR
  C:005CH         PUBLIC        ?C?ILDOPTR
  -------         ENDMOD        ?C?ILDOPTR

  -------         MODULE        ?C?ULDIV
  C:00D0H         PUBLIC        ?C?ULDIV
  -------         ENDMOD        ?C?ULDIV

  -------         MODULE        ?C?ULCMP
  C:0162H         PUBLIC        ?C?ULCMP
  -------         ENDMOD        ?C?ULCMP

Program Size: data=44.0 xdata=0 code=2237
LINK/LOCATE RUN COMPLETE.  0 WARNING(S),  0 ERROR(S)
