BL51 BANKED LINKER/LOCATER V6.22                                                        09/28/2018  18:12:46  PAGE 1


BL51 BANKED LINKER/LOCATER V6.22, INVOKED BY:
C:\KEIL\C51\BIN\BL51.EXE GPIO.obj, main.obj, timer.obj, Soft_UART.obj, delay.obj, Exti.obj TO timer PRINT (.\list\timer.
>> m51) RAMSIZE (256)


MEMORY MODEL: SMALL


INPUT MODULES INCLUDED:
  GPIO.obj (GPIO)
  main.obj (MAIN)
  timer.obj (TIMER)
  Soft_UART.obj (SOFT_UART)
  delay.obj (DELAY)
  Exti.obj (EXTI)
  C:\KEIL\C51\LIB\C51S.LIB (?C_STARTUP)
  C:\KEIL\C51\LIB\C51S.LIB (?C?CLDPTR)
  C:\KEIL\C51\LIB\C51S.LIB (?C?CLDOPTR)
  C:\KEIL\C51\LIB\C51S.LIB (?C?ILDOPTR)
  C:\KEIL\C51\LIB\C51S.LIB (?C?ULDIV)
  C:\KEIL\C51\LIB\C51S.LIB (?C?ULCMP)
  C:\KEIL\C51\LIB\C51S.LIB (?C_INIT)


LINK MAP OF MODULE:  timer (GPIO)


            TYPE    BASE      LENGTH    RELOCATION   SEGMENT NAME
            -----------------------------------------------------

            * * * * * * *   D A T A   M E M O R Y   * * * * * * *
            REG     0000H     0008H     ABSOLUTE     "REG BANK 0"
            DATA    0008H     0017H     UNIT         ?DT?MAIN
            DATA    001FH     0008H     UNIT         _DATA_GROUP_
            IDATA   0027H     0001H     UNIT         ?STACK

            * * * * * * *   C O D E   M E M O R Y   * * * * * * *
            CODE    0000H     0003H     ABSOLUTE     
            CODE    0003H     0003H     ABSOLUTE     
            CODE    0006H     0001H     UNIT         ?PR?MINTUEACTION?MAIN
                    0007H     0004H                  *** GAP ***
            CODE    000BH     0003H     ABSOLUTE     
                    000EH     0005H                  *** GAP ***
            CODE    0013H     0003H     ABSOLUTE     
            CODE    0016H     015DH     UNIT         ?C?LIB_CODE
            CODE    0173H     011EH     UNIT         ?PR?_TIMER_INILIZE?TIMER
            CODE    0291H     0116H     UNIT         ?PR?TIMER0_INT?MAIN
            CODE    03A7H     00E3H     UNIT         ?PR?PRINTNOWTIME?MAIN
            CODE    048AH     008CH     UNIT         ?C_C51STARTUP
            CODE    0516H     0085H     UNIT         ?PR?_EXT_INILIZE?EXTI
            CODE    059BH     005EH     UNIT         ?PR?_GPIO_INILIZE?GPIO
            CODE    05F9H     005AH     UNIT         ?PR?SECONDACTION?MAIN
            CODE    0653H     004FH     UNIT         ?PR?MAIN?MAIN
            CODE    06A2H     004FH     UNIT         ?PR?INT1_INT?MAIN
            CODE    06F1H     0049H     UNIT         ?CO?MAIN
            CODE    073AH     0044H     UNIT         ?PR?INT0_INT?MAIN
            CODE    077EH     003FH     UNIT         ?PR?KEY_SCAN?MAIN
            CODE    07BDH     0036H     UNIT         ?PR?_L2SHOWWITHNUM?MAIN
BL51 BANKED LINKER/LOCATER V6.22                                                      09/28/2018  18:12:46  PAGE 2


            CODE    07F3H     002AH     UNIT         ?C_INITSEG
            CODE    081DH     0026H     UNIT         ?PR?_TXSEND?SOFT_UART
            CODE    0843H     0025H     UNIT         ?PR?EXTI_CONFIG?MAIN
            CODE    0868H     0021H     UNIT         ?PR?GPIO_CONFIG?MAIN
            CODE    0889H     0020H     UNIT         ?PR?TIMER_CONFIG?MAIN
            CODE    08A9H     0017H     UNIT         ?PR?_DELAY_MS?DELAY
            CODE    08C0H     0010H     UNIT         ?PR?_PRINTSTRING?SOFT_UART
            CODE    08D0H     000EH     UNIT         ?PR?BITTIME?SOFT_UART
            CODE    08DEH     000AH     UNIT         ?PR?MOTOSTART?MAIN



OVERLAY MAP OF MODULE:   timer (GPIO)


SEGMENT                              DATA_GROUP 
  +--> CALLED SEGMENT              START    LENGTH
--------------------------------------------------
?PR?TIMER0_INT?MAIN                -----    -----
  +--> ?PR?SECONDACTION?MAIN
  +--> ?PR?MINTUEACTION?MAIN

?PR?SECONDACTION?MAIN              -----    -----
  +--> ?PR?PRINTNOWTIME?MAIN
  +--> ?PR?_DELAY_MS?DELAY

?PR?PRINTNOWTIME?MAIN              -----    -----
  +--> ?PR?_TXSEND?SOFT_UART
  +--> ?CO?MAIN
  +--> ?PR?_PRINTSTRING?SOFT_UART

?PR?_TXSEND?SOFT_UART              -----    -----
  +--> ?PR?BITTIME?SOFT_UART

?PR?_PRINTSTRING?SOFT_UART         -----    -----
  +--> ?PR?_TXSEND?SOFT_UART

*** NEW ROOT ***************************************************

?PR?INT0_INT?MAIN                  -----    -----
  +--> ?CO?MAIN
  +--> ?PR?_PRINTSTRING?SOFT_UART

*** NEW ROOT ***************************************************

?PR?INT1_INT?MAIN                  -----    -----
  +--> ?CO?MAIN
  +--> ?PR?_PRINTSTRING?SOFT_UART
  +--> ?PR?_DELAY_MS?DELAY

*** NEW ROOT ***************************************************

?C_C51STARTUP                      -----    -----
  +--> ?PR?MAIN?MAIN
  +--> ?C_INITSEG

?PR?MAIN?MAIN                      -----    -----
BL51 BANKED LINKER/LOCATER V6.22                                                      09/28/2018  18:12:46  PAGE 3


  +--> ?PR?GPIO_CONFIG?MAIN
  +--> ?PR?EXTI_CONFIG?MAIN
  +--> ?PR?TIMER_CONFIG?MAIN
  +--> ?PR?KEY_SCAN?MAIN
  +--> ?PR?MOTOSTART?MAIN

?PR?GPIO_CONFIG?MAIN               001FH    0002H
  +--> ?PR?_GPIO_INILIZE?GPIO

?PR?EXTI_CONFIG?MAIN               001FH    0003H
  +--> ?PR?_EXT_INILIZE?EXTI

?PR?TIMER_CONFIG?MAIN              001FH    0008H
  +--> ?PR?_TIMER_INILIZE?TIMER

?PR?KEY_SCAN?MAIN                  -----    -----
  +--> ?PR?MOTOSTART?MAIN
  +--> ?PR?_L2SHOWWITHNUM?MAIN

?PR?MOTOSTART?MAIN                 -----    -----
  +--> ?CO?MAIN
  +--> ?PR?_PRINTSTRING?SOFT_UART

?PR?_L2SHOWWITHNUM?MAIN            001FH    0003H
  +--> ?CO?MAIN
  +--> ?PR?_PRINTSTRING?SOFT_UART
  +--> ?PR?_DELAY_MS?DELAY



SYMBOL TABLE OF MODULE:  timer (GPIO)

  VALUE           TYPE          NAME
  ----------------------------------

  -------         MODULE        GPIO
  C:0000H         SYMBOL        _ICE_DUMMY_
  D:00B2H         PUBLIC        P3M0
  D:00B1H         PUBLIC        P3M1
  D:00A8H         PUBLIC        IE
  D:00B8H         PUBLIC        IP
  D:0088H         PUBLIC        TCON
  C:059BH         PUBLIC        _GPIO_Inilize
  -------         PROC          _GPIO_INILIZE
  D:0007H         SYMBOL        GPIO
  D:0001H         SYMBOL        GPIOx
  C:059BH         LINE#         31
  C:059BH         LINE#         32
  C:059BH         LINE#         33
  C:05A4H         LINE#         34
  C:05B0H         LINE#         37
  C:05B5H         LINE#         38
  C:05B5H         LINE#         39
  C:05C3H         LINE#         40
  C:05D4H         LINE#         41
  C:05E5H         LINE#         42
  C:05F6H         LINE#         43
BL51 BANKED LINKER/LOCATER V6.22                                                      09/28/2018  18:12:46  PAGE 4


  C:05F6H         LINE#         45
  C:05F8H         LINE#         46
  -------         ENDPROC       _GPIO_INILIZE
  -------         ENDMOD        GPIO

  -------         MODULE        MAIN
  C:0000H         SYMBOL        _ICE_DUMMY_
  C:0291H         PUBLIC        timer0_int
  D:00B0H         PUBLIC        P3
  B:00A8H.7       PUBLIC        EA
  B:00B0H.3       PUBLIC        ioInKeyForMoto
  D:0008H         PUBLIC        g_hour
  B:00B0H.5       PUBLIC        ioOutForMotoKey
  C:0868H         PUBLIC        GPIO_config
  D:00A8H         PUBLIC        IE
  D:000CH         PUBLIC        g_key_flag
  C:07BDH         PUBLIC        _l2ShowWithNum
  C:0843H         PUBLIC        EXTI_config
  D:00B8H         PUBLIC        IP
  D:000EH         PUBLIC        g_key_time
  C:0653H         PUBLIC        main
  B:00B0H.0       PUBLIC        ioOutForL1Green
  D:000FH         PUBLIC        g_allKeyState
  D:0011H         PUBLIC        g_light_on_time
  D:0088H         PUBLIC        TCON
  B:0088H.1       PUBLIC        IE0
  B:0088H.3       PUBLIC        IE1
  D:0012H         PUBLIC        g_second
  C:073AH         PUBLIC        INT0_int
  C:06A2H         PUBLIC        INT1_int
  B:00A8H.2       PUBLIC        EX1
  C:077EH         PUBLIC        key_scan
  D:0016H         PUBLIC        g_moto_run_time
  C:08DEH         PUBLIC        motoStart
  B:00B0H.1       PUBLIC        ioOutForL2Red
  D:0017H         PUBLIC        g_minute
  C:0889H         PUBLIC        Timer_config
  C:05F9H         PUBLIC        secondAction
  D:001BH         PUBLIC        g_millisecond
  B:00B0H.4       PUBLIC        ioOutForMotoPower
  B:00B0H.2       PUBLIC        ioInKeyForTime
  C:03A7H         PUBLIC        printNowTime
  C:0006H         PUBLIC        mintueAction
  -------         PROC          EXTI_CONFIG
  -------         DO            
  D:001FH         SYMBOL        EXTI_InitStructure
  -------         ENDDO         
  C:0843H         LINE#         106
  C:0843H         LINE#         107
  C:0843H         LINE#         111
  C:0846H         LINE#         112
  C:0849H         LINE#         113
  C:084CH         LINE#         114
  C:0855H         LINE#         117
  C:0858H         LINE#         118
  C:085BH         LINE#         119
  C:085EH         LINE#         120
BL51 BANKED LINKER/LOCATER V6.22                                                      09/28/2018  18:12:46  PAGE 5


  -------         ENDPROC       EXTI_CONFIG
  -------         PROC          GPIO_CONFIG
  -------         DO            
  D:001FH         SYMBOL        GPIO_InitStructure
  -------         ENDDO         
  C:0868H         LINE#         134
  C:0868H         LINE#         135
  C:0868H         LINE#         137
  C:086BH         LINE#         139
  C:086EH         LINE#         140
  C:0879H         LINE#         143
  C:087CH         LINE#         144
  C:087FH         LINE#         145
  -------         ENDPROC       GPIO_CONFIG
  -------         PROC          TIMER_CONFIG
  -------         DO            
  D:001FH         SYMBOL        TIM_InitStructure
  -------         ENDDO         
  C:0889H         LINE#         150
  C:0889H         LINE#         151
  C:0889H         LINE#         153
  C:088CH         LINE#         154
  C:088FH         LINE#         155
  C:0892H         LINE#         156
  C:0895H         LINE#         157
  C:0897H         LINE#         158
  C:089DH         LINE#         160
  C:08A0H         LINE#         161
  -------         ENDPROC       TIMER_CONFIG
  -------         PROC          MAIN
  C:0653H         LINE#         167
  C:0653H         LINE#         168
  C:0653H         LINE#         171
  C:0656H         LINE#         175
  C:065CH         LINE#         178
  C:0660H         LINE#         180
  C:0662H         LINE#         187
  C:0665H         LINE#         190
  C:0668H         LINE#         192
  C:066AH         LINE#         196
  C:066AH         LINE#         197
  C:066AH         LINE#         198
  C:066DH         LINE#         206
  C:069DH         LINE#         208
  C:06A0H         LINE#         210
  C:06A0H         LINE#         211
  -------         ENDPROC       MAIN
  -------         PROC          KEY_SCAN
  C:077EH         LINE#         217
  C:077EH         LINE#         219
  C:0783H         LINE#         221
  C:0786H         LINE#         224
  C:0789H         LINE#         225
  C:078EH         LINE#         227
  C:078EH         LINE#         238
  C:0793H         LINE#         240
  C:0796H         LINE#         243
BL51 BANKED LINKER/LOCATER V6.22                                                      09/28/2018  18:12:46  PAGE 6


  C:079FH         LINE#         244
  C:07B7H         LINE#         246
  C:07BCH         LINE#         248
  C:07BCH         LINE#         249
  -------         ENDPROC       KEY_SCAN
  -------         PROC          _L2SHOWWITHNUM
  D:001FH         SYMBOL        num
  -------         DO            
  D:0020H         SYMBOL        i
  -------         ENDDO         
  C:07BDH         LINE#         262
  C:07BFH         LINE#         263
  C:07BFH         LINE#         264
  C:07C4H         LINE#         265
  C:07CBH         LINE#         267
  C:07DDH         LINE#         268
  C:07DDH         LINE#         269
  C:07DFH         LINE#         270
  C:07E6H         LINE#         271
  C:07E8H         LINE#         272
  C:07F2H         LINE#         273
  -------         ENDPROC       _L2SHOWWITHNUM
  -------         PROC          MOTOSTART
  C:08DEH         LINE#         281
  C:08DEH         LINE#         283
  C:08E1H         LINE#         284
  -------         ENDPROC       MOTOSTART
  -------         PROC          SECONDACTION
  C:05F9H         LINE#         287
  C:05F9H         LINE#         289
  C:05FCH         LINE#         291
  C:0620H         LINE#         292
  C:0622H         LINE#         295
  C:0624H         LINE#         296
  C:0624H         LINE#         297
  C:0626H         LINE#         298
  C:0626H         LINE#         301
  C:062BH         LINE#         303
  C:062BH         LINE#         304
  C:0630H         LINE#         305
  C:0632H         LINE#         307
  C:0634H         LINE#         308
  C:063BH         LINE#         309
  C:063DH         LINE#         311
  C:063EH         LINE#         312
  C:0643H         LINE#         313
  C:0646H         LINE#         316
  C:0648H         LINE#         317
  C:0649H         LINE#         318
  C:0650H         LINE#         319
  C:0652H         LINE#         320
  C:0652H         LINE#         323
  -------         ENDPROC       SECONDACTION
  -------         PROC          MINTUEACTION
  C:0006H         LINE#         325
  C:0006H         LINE#         328
  -------         ENDPROC       MINTUEACTION
BL51 BANKED LINKER/LOCATER V6.22                                                      09/28/2018  18:12:46  PAGE 7


  -------         PROC          PRINTNOWTIME
  C:03A7H         LINE#         332
  C:03A7H         LINE#         336
  C:03ACH         LINE#         338
  C:03D5H         LINE#         339
  C:03EDH         LINE#         342
  C:03F2H         LINE#         343
  C:03F7H         LINE#         344
  C:0420H         LINE#         345
  C:0438H         LINE#         347
  C:043DH         LINE#         348
  C:0442H         LINE#         350
  C:046BH         LINE#         351
  C:0483H         LINE#         362
  -------         ENDPROC       PRINTNOWTIME
  -------         PROC          TIMER0_INT
  C:0291H         LINE#         366
  C:02AEH         LINE#         368
  C:02C3H         LINE#         370
  C:02DBH         LINE#         371
  C:02E7H         LINE#         372
  C:02EAH         LINE#         374
  C:02FFH         LINE#         376
  C:0313H         LINE#         379
  C:0316H         LINE#         382
  C:0322H         LINE#         383
  C:0337H         LINE#         385
  C:034BH         LINE#         388
  C:0357H         LINE#         389
  C:036CH         LINE#         391
  C:0380H         LINE#         394
  C:038CH         LINE#         396
  C:038CH         LINE#         398
  C:038CH         LINE#         399
  C:038CH         LINE#         400
  C:038CH         LINE#         401
  -------         ENDPROC       TIMER0_INT
  -------         PROC          INT0_INT
  C:073AH         LINE#         410
  C:0757H         LINE#         414
  C:0759H         LINE#         415
  C:0760H         LINE#         417
  C:0763H         LINE#         418
  -------         ENDPROC       INT0_INT
  -------         PROC          INT1_INT
  C:06A2H         LINE#         421
  C:06BFH         LINE#         424
  C:06C1H         LINE#         427
  C:06C3H         LINE#         431
  C:06CAH         LINE#         432
  C:06D1H         LINE#         433
  C:06D3H         LINE#         435
  C:06D6H         LINE#         436
  -------         ENDPROC       INT1_INT
  -------         ENDMOD        MAIN

  -------         MODULE        TIMER
BL51 BANKED LINKER/LOCATER V6.22                                                      09/28/2018  18:12:46  PAGE 8


  C:0000H         SYMBOL        _ICE_DUMMY_
  D:00A8H         PUBLIC        IE
  D:00B8H         PUBLIC        IP
  D:0089H         PUBLIC        TMOD
  D:0088H         PUBLIC        TCON
  C:0173H         PUBLIC        _Timer_Inilize
  D:008EH         PUBLIC        AUXR
  B:00A8H.1       PUBLIC        ET0
  B:00A8H.3       PUBLIC        ET1
  D:008CH         PUBLIC        TH0
  D:008DH         PUBLIC        TH1
  D:008AH         PUBLIC        TL0
  D:008BH         PUBLIC        TL1
  B:00B8H.1       PUBLIC        PT0
  B:00B8H.3       PUBLIC        PT1
  B:0088H.4       PUBLIC        TR0
  B:0088H.6       PUBLIC        TR1
  D:008FH         PUBLIC        INT_CLKO
  -------         PROC          _TIMER_INILIZE
  D:0005H         SYMBOL        TIM
  D:0001H         SYMBOL        TIMx
  C:0173H         LINE#         44
  C:0175H         LINE#         45
  C:0175H         LINE#         46
  C:017EH         LINE#         48
  C:0184H         LINE#         49
  C:0184H         LINE#         50
  C:0186H         LINE#         51
  C:0193H         LINE#         52
  C:0195H         LINE#         53
  C:01A2H         LINE#         54
  C:01A4H         LINE#         55
  C:01B0H         LINE#         56
  C:01B7H         LINE#         57
  C:01C4H         LINE#         58
  C:01CAH         LINE#         59
  C:01D3H         LINE#         60
  C:01D6H         LINE#         61
  C:01E4H         LINE#         62
  C:01E7H         LINE#         64
  C:01F1H         LINE#         65
  C:01F9H         LINE#         66
  C:0204H         LINE#         67
  C:0207H         LINE#         68
  C:0207H         LINE#         70
  C:020FH         LINE#         71
  C:020FH         LINE#         72
  C:0211H         LINE#         73
  C:021EH         LINE#         74
  C:0220H         LINE#         75
  C:022DH         LINE#         76
  C:022FH         LINE#         77
  C:023BH         LINE#         78
  C:0242H         LINE#         79
  C:024FH         LINE#         80
  C:0255H         LINE#         81
  C:025EH         LINE#         82
BL51 BANKED LINKER/LOCATER V6.22                                                      09/28/2018  18:12:46  PAGE 9


  C:0261H         LINE#         83
  C:026FH         LINE#         84
  C:0272H         LINE#         86
  C:027EH         LINE#         87
  C:0280H         LINE#         88
  C:028BH         LINE#         89
  C:028EH         LINE#         90
  C:028EH         LINE#         110
  C:0290H         LINE#         111
  -------         ENDPROC       _TIMER_INILIZE
  -------         ENDMOD        TIMER

  -------         MODULE        SOFT_UART
  C:0000H         SYMBOL        _ICE_DUMMY_
  D:00B0H         PUBLIC        P3
  C:08C0H         PUBLIC        _PrintString
  D:00A8H         PUBLIC        IE
  D:00B8H         PUBLIC        IP
  B:00B0H.1       PUBLIC        P_TXD
  C:08D0H         PUBLIC        BitTime
  D:0088H         PUBLIC        TCON
  C:081DH         PUBLIC        _TxSend
  -------         PROC          BITTIME
  -------         DO            
  D:0006H         SYMBOL        i
  -------         ENDDO         
  C:08D0H         LINE#         38
  C:08D0H         LINE#         39
  C:08D0H         LINE#         41
  C:08D4H         LINE#         42
  C:08DDH         LINE#         43
  -------         ENDPROC       BITTIME
  -------         PROC          _TXSEND
  D:0005H         SYMBOL        dat
  -------         DO            
  D:0004H         SYMBOL        i
  -------         ENDDO         
  C:081DH         LINE#         54
  C:081FH         LINE#         55
  C:081FH         LINE#         58
  C:0821H         LINE#         59
  C:0824H         LINE#         60
  C:0826H         LINE#         61
  C:0826H         LINE#         62
  C:082EH         LINE#         63
  C:0830H         LINE#         64
  C:0834H         LINE#         65
  C:0837H         LINE#         66
  C:083BH         LINE#         67
  C:083DH         LINE#         69
  C:0840H         LINE#         70
  -------         ENDPROC       _TXSEND
  -------         PROC          _PRINTSTRING
  D:0082H         SYMBOL        puts
  C:08C0H         LINE#         82
  C:08C4H         LINE#         83
  C:08C4H         LINE#         84
BL51 BANKED LINKER/LOCATER V6.22                                                      09/28/2018  18:12:46  PAGE 10


  C:08CFH         LINE#         85
  -------         ENDPROC       _PRINTSTRING
  -------         ENDMOD        SOFT_UART

  -------         MODULE        DELAY
  C:0000H         SYMBOL        _ICE_DUMMY_
  D:00A8H         PUBLIC        IE
  D:00B8H         PUBLIC        IP
  D:0088H         PUBLIC        TCON
  C:08A9H         PUBLIC        _delay_ms
  -------         PROC          _DELAY_MS
  D:0006H         SYMBOL        ms
  -------         DO            
  D:0004H         SYMBOL        i
  -------         ENDDO         
  C:08A9H         LINE#         33
  C:08A9H         LINE#         34
  C:08A9H         LINE#         36
  C:08A9H         LINE#         37
  C:08ADH         LINE#         38
  C:08B6H         LINE#         39
  C:08BFH         LINE#         40
  -------         ENDPROC       _DELAY_MS
  -------         ENDMOD        DELAY

  -------         MODULE        EXTI
  C:0000H         SYMBOL        _ICE_DUMMY_
  D:00A8H         PUBLIC        IE
  D:00B8H         PUBLIC        IP
  D:0088H         PUBLIC        TCON
  B:00A8H.0       PUBLIC        EX0
  B:0088H.0       PUBLIC        IT0
  B:00A8H.2       PUBLIC        EX1
  B:0088H.2       PUBLIC        IT1
  B:00B8H.0       PUBLIC        PX0
  B:00B8H.2       PUBLIC        PX1
  C:0516H         PUBLIC        _Ext_Inilize
  D:008FH         PUBLIC        INT_CLKO
  -------         PROC          _EXT_INILIZE
  D:0007H         SYMBOL        EXT
  D:0001H         SYMBOL        INTx
  C:0516H         LINE#         50
  C:0516H         LINE#         51
  C:0516H         LINE#         52
  C:051FH         LINE#         54
  C:0522H         LINE#         55
  C:0522H         LINE#         56
  C:052FH         LINE#         57
  C:0531H         LINE#         58
  C:053EH         LINE#         59
  C:0540H         LINE#         60
  C:054AH         LINE#         61
  C:054CH         LINE#         62
  C:054FH         LINE#         63
  C:054FH         LINE#         65
  C:0554H         LINE#         66
  C:0554H         LINE#         67
BL51 BANKED LINKER/LOCATER V6.22                                                      09/28/2018  18:12:46  PAGE 11


  C:0561H         LINE#         68
  C:0563H         LINE#         69
  C:0570H         LINE#         70
  C:0572H         LINE#         71
  C:057CH         LINE#         72
  C:057EH         LINE#         73
  C:0581H         LINE#         74
  C:0581H         LINE#         83
  C:0584H         LINE#         84
  C:0584H         LINE#         85
  C:0592H         LINE#         86
  C:0595H         LINE#         87
  C:0598H         LINE#         88
  C:0598H         LINE#         96
  C:059AH         LINE#         97
  -------         ENDPROC       _EXT_INILIZE
  -------         ENDMOD        EXTI

  -------         MODULE        ?C?CLDPTR
  C:0016H         PUBLIC        ?C?CLDPTR
  -------         ENDMOD        ?C?CLDPTR

  -------         MODULE        ?C?CLDOPTR
  C:002FH         PUBLIC        ?C?CLDOPTR
  -------         ENDMOD        ?C?CLDOPTR

  -------         MODULE        ?C?ILDOPTR
  C:005CH         PUBLIC        ?C?ILDOPTR
  -------         ENDMOD        ?C?ILDOPTR

  -------         MODULE        ?C?ULDIV
  C:00D0H         PUBLIC        ?C?ULDIV
  -------         ENDMOD        ?C?ULDIV

  -------         MODULE        ?C?ULCMP
  C:0162H         PUBLIC        ?C?ULCMP
  -------         ENDMOD        ?C?ULCMP

Program Size: data=40.0 xdata=0 code=2271
LINK/LOCATE RUN COMPLETE.  0 WARNING(S),  0 ERROR(S)
